Certificate:
    Data:
        Version: 3 (0x2)
        Serial Number: 2310435 (0x234123)
    Signature Algorithm: sha1WithRSAEncryption
        Issuer: C=AU, ST=georgia, O=Internet Widgits Pty Ltd
        Validity
            Not Before: Apr 25 17:10:17 2013 GMT
            Not After : Apr 25 17:10:17 2014 GMT
        Subject: C=AU, ST=georgia, O=Internet Widgits Pty Ltd, OU=gtech, CN=client1
        Subject Public Key Info:
            Public Key Algorithm: rsaEncryption
                Public-Key: (1024 bit)
                Modulus:
                    00:a1:fc:aa:07:bf:1c:11:b6:63:a5:d1:3c:55:a1:
                    00:27:f8:78:8c:90:06:57:1b:3f:d3:80:2f:a2:14:
                    d7:a6:f5:af:74:a4:b6:b5:75:39:3a:d3:ea:dc:44:
                    35:1d:e4:b0:6e:b1:9e:85:14:ff:04:56:25:1a:12:
                    c5:25:33:09:0d:24:cd:a3:c9:89:fa:37:06:c9:57:
                    14:a3:ba:6e:30:0a:f5:4e:ea:ff:8d:f7:b7:b6:3f:
                    66:55:52:1c:ba:46:8b:c9:82:1c:3e:02:61:a6:1e:
                    f3:48:cd:a0:66:aa:f6:db:36:e3:26:14:a1:15:e0:
                    bd:54:df:04:64:e0:d4:cf:91
                Exponent: 65537 (0x10001)
        X509v3 extensions:
            X509v3 Basic Constraints: 
                CA:FALSE
            Netscape Comment: 
                OpenSSL Generated Certificate
            X509v3 Subject Key Identifier: 
                C7:CD:DA:32:58:9F:CF:33:FA:BC:30:5E:28:5C:8F:17:7A:DB:42:1D
            X509v3 Authority Key Identifier: 
                keyid:03:B8:D3:07:12:D3:75:ED:10:70:96:9C:CA:41:C8:B0:C4:A7:B5:2F

    Signature Algorithm: sha1WithRSAEncryption
         99:ee:ab:f3:38:86:9c:94:54:14:b5:a7:9e:bd:51:0d:41:0c:
         66:84:53:d5:ab:e7:f1:01:db:d3:0d:a9:89:7c:89:e4:22:4c:
         e8:b1:4e:a2:df:e2:b2:c1:4d:f3:d2:74:a2:8f:6f:9b:e4:94:
         aa:11:c8:ef:ad:d2:71:9b:6f:a2:51:92:fc:d1:f1:3f:a1:e1:
         e0:24:90:aa:27:45:38:dd:a3:e1:7d:16:9f:c3:e9:94:46:c5:
         b5:2c:1e:2b:4a:b1:bb:49:62:6a:14:19:ff:f1:8c:13:91:8a:
         bf:16:a3:29:7b:43:ff:12:99:97:1e:40:43:2a:e0:5b:d1:27:
         90:e5
-----BEGIN CERTIFICATE-----
MIICmTCCAgKgAwIBAgIDI0EjMA0GCSqGSIb3DQEBBQUAMEIxCzAJBgNVBAYTAkFV
MRAwDgYDVQQIDAdnZW9yZ2lhMSEwHwYDVQQKDBhJbnRlcm5ldCBXaWRnaXRzIFB0
eSBMdGQwHhcNMTMwNDI1MTcxMDE3WhcNMTQwNDI1MTcxMDE3WjBkMQswCQYDVQQG
EwJBVTEQMA4GA1UECAwHZ2VvcmdpYTEhMB8GA1UECgwYSW50ZXJuZXQgV2lkZ2l0
cyBQdHkgTHRkMQ4wDAYDVQQLDAVndGVjaDEQMA4GA1UEAwwHY2xpZW50MTCBnzAN
BgkqhkiG9w0BAQEFAAOBjQAwgYkCgYEAofyqB78cEbZjpdE8VaEAJ/h4jJAGVxs/
04AvohTXpvWvdKS2tXU5OtPq3EQ1HeSwbrGehRT/BFYlGhLFJTMJDSTNo8mJ+jcG
yVcUo7puMAr1Tur/jfe3tj9mVVIcukaLyYIcPgJhph7zSM2gZqr22zbjJhShFeC9
VN8EZODUz5ECAwEAAaN7MHkwCQYDVR0TBAIwADAsBglghkgBhvhCAQ0EHxYdT3Bl
blNTTCBHZW5lcmF0ZWQgQ2VydGlmaWNhdGUwHQYDVR0OBBYEFMfN2jJYn88z+rww
Xihcjxd620IdMB8GA1UdIwQYMBaAFAO40wcS03XtEHCWnMpByLDEp7UvMA0GCSqG
SIb3DQEBBQUAA4GBAJnuq/M4hpyUVBS1p569UQ1BDGaEU9Wr5/EB29MNqYl8ieQi
TOixTqLf4rLBTfPSdKKPb5vklKoRyO+t0nGbb6JRkvzR8T+h4eAkkKonRTjdo+F9
Fp/D6ZRGxbUsHitKsbtJYmoUGf/xjBORir8Woyl7Q/8SmZceQEMq4FvRJ5Dl
-----END CERTIFICATE-----
