Certificate:
    Data:
        Version: 3 (0x2)
        Serial Number: 2310436 (0x234124)
    Signature Algorithm: sha1WithRSAEncryption
        Issuer: C=AU, ST=georgia, O=Internet Widgits Pty Ltd
        Validity
            Not Before: Apr 25 17:25:59 2013 GMT
            Not After : Apr 25 17:25:59 2014 GMT
        Subject: C=AU, ST=georgia, O=Internet Widgits Pty Ltd, OU=gtech, CN=client2
        Subject Public Key Info:
            Public Key Algorithm: rsaEncryption
                Public-Key: (1024 bit)
                Modulus:
                    00:d8:34:e0:f3:db:00:66:9d:9d:37:02:cf:5f:49:
                    3e:6a:50:9d:e5:be:c2:a4:1b:2b:df:4d:91:ca:2b:
                    5b:c6:00:9b:a0:e9:1f:0c:f5:52:73:94:fc:55:82:
                    cc:b3:22:8e:d5:2e:37:ff:b7:68:8c:a1:e9:47:bf:
                    bb:20:95:21:25:fa:8a:55:34:f7:12:83:ce:a2:7f:
                    94:53:b3:a7:3b:d4:80:3a:e1:b8:11:01:a5:a9:e7:
                    a9:33:25:de:b8:f1:d4:d7:6a:18:8a:be:13:e1:38:
                    a6:37:53:0d:fd:fc:ac:2b:cb:f8:d0:3a:2a:bf:e9:
                    fd:27:f4:ed:7f:0e:f7:31:d7
                Exponent: 65537 (0x10001)
        X509v3 extensions:
            X509v3 Basic Constraints: 
                CA:FALSE
            Netscape Comment: 
                OpenSSL Generated Certificate
            X509v3 Subject Key Identifier: 
                37:76:9C:37:93:31:E7:84:53:0B:C6:A7:B9:72:A3:FC:EC:36:B0:59
            X509v3 Authority Key Identifier: 
                keyid:03:B8:D3:07:12:D3:75:ED:10:70:96:9C:CA:41:C8:B0:C4:A7:B5:2F

    Signature Algorithm: sha1WithRSAEncryption
         d0:56:0e:c4:96:c7:c3:39:e3:e8:33:68:60:e6:84:f1:da:06:
         a5:09:b7:9e:4a:68:aa:77:d4:a3:d6:11:a6:c5:29:fc:79:df:
         a7:24:6d:4c:f4:42:53:bf:fd:9c:2e:6f:18:90:8d:45:0f:5c:
         b8:dc:4b:a7:5b:7d:9c:c3:cd:44:09:c1:8f:0e:0f:9b:31:b6:
         4f:26:16:72:86:cd:6c:0e:2b:07:0d:01:ec:be:45:a8:fe:50:
         42:74:29:1b:2c:85:b4:85:20:64:c9:52:fa:bd:39:bd:84:2c:
         97:38:af:5d:07:67:56:9a:55:15:74:f5:9a:1a:b7:ea:c4:4b:
         7a:1e
-----BEGIN CERTIFICATE-----
MIICmTCCAgKgAwIBAgIDI0EkMA0GCSqGSIb3DQEBBQUAMEIxCzAJBgNVBAYTAkFV
MRAwDgYDVQQIDAdnZW9yZ2lhMSEwHwYDVQQKDBhJbnRlcm5ldCBXaWRnaXRzIFB0
eSBMdGQwHhcNMTMwNDI1MTcyNTU5WhcNMTQwNDI1MTcyNTU5WjBkMQswCQYDVQQG
EwJBVTEQMA4GA1UECAwHZ2VvcmdpYTEhMB8GA1UECgwYSW50ZXJuZXQgV2lkZ2l0
cyBQdHkgTHRkMQ4wDAYDVQQLDAVndGVjaDEQMA4GA1UEAwwHY2xpZW50MjCBnzAN
BgkqhkiG9w0BAQEFAAOBjQAwgYkCgYEA2DTg89sAZp2dNwLPX0k+alCd5b7CpBsr
302RyitbxgCboOkfDPVSc5T8VYLMsyKO1S43/7dojKHpR7+7IJUhJfqKVTT3EoPO
on+UU7OnO9SAOuG4EQGlqeepMyXeuPHU12oYir4T4TimN1MN/fysK8v40Doqv+n9
J/Ttfw73MdcCAwEAAaN7MHkwCQYDVR0TBAIwADAsBglghkgBhvhCAQ0EHxYdT3Bl
blNTTCBHZW5lcmF0ZWQgQ2VydGlmaWNhdGUwHQYDVR0OBBYEFDd2nDeTMeeEUwvG
p7lyo/zsNrBZMB8GA1UdIwQYMBaAFAO40wcS03XtEHCWnMpByLDEp7UvMA0GCSqG
SIb3DQEBBQUAA4GBANBWDsSWx8M54+gzaGDmhPHaBqUJt55KaKp31KPWEabFKfx5
36ckbUz0QlO//ZwubxiQjUUPXLjcS6dbfZzDzUQJwY8OD5sxtk8mFnKGzWwOKwcN
Aey+Raj+UEJ0KRsshbSFIGTJUvq9Ob2ELJc4r10HZ1aaVRV09Zoat+rES3oe
-----END CERTIFICATE-----
